target datalayout = "e-m:e-p270:32:32-p271:32:32-p272:64:64-i64:64-i128:128-f80:128-n8:16:32:64-S128"
target triple = "x86_64-pc-linux-gnu"

%struct.KINMemRec = type { double, ptr, ptr, double, double, i32, i32, i64, i64, i64, i64, i32, i32, i32, i32, i32, i32, i32, i32, i32, double, double, double, double, double, double, double, double, double, i32, double, i64, i64, i64, i64, i64, i64, i64, ptr, ptr, ptr, ptr, ptr, ptr, ptr, ptr, ptr, ptr, ptr, ptr, ptr, ptr, ptr, ptr, ptr, ptr, i64, i32, i32, i64, i64, i64, i64, ptr, ptr, ptr, ptr, i32, ptr, double, double, double, double, double, i32, double, double, double, i32, ptr, ptr, ptr, ptr, ptr, ptr }

@.str = private unnamed_addr constant [7 x i8] c"KINSOL\00", align 1
@.str.2 = private unnamed_addr constant [27 x i8] c"kinsol_mem = NULL illegal.\00", align 1
@.str.42 = private unnamed_addr constant [14 x i8] c"KINSetSysFunc\00", align 1
@.str.43 = private unnamed_addr constant [21 x i8] c"func = NULL illegal.\00", align 1

; Function Attrs: nounwind uwtable
define i32 @KINSetSysFunc(ptr noundef %0, ptr noundef %1) #0 {
  %3 = alloca i32, align 4
  %4 = alloca ptr, align 8
  %5 = alloca ptr, align 8
  %6 = alloca ptr, align 8
  store ptr %0, ptr %4, align 8
  store ptr %1, ptr %5, align 8
  %7 = load ptr, ptr %4, align 8
  %8 = icmp eq ptr %7, null
  br i1 %8, label %9, label %10

9:                                                ; preds = %2
  call void (ptr, i32, ptr, ptr, ptr, ...) @KINProcessError(ptr noundef null, i32 noundef -1, ptr noundef @.str, ptr noundef @.str.42, ptr noundef @.str.2)
  store i32 -1, ptr %3, align 4
  br label %19

10:                                               ; preds = %2
  %11 = load ptr, ptr %4, align 8
  store ptr %11, ptr %6, align 8
  %12 = load ptr, ptr %5, align 8
  %13 = icmp eq ptr %12, null
  br i1 %13, label %14, label %15

14:                                               ; preds = %10
  call void (ptr, i32, ptr, ptr, ptr, ...) @KINProcessError(ptr noundef null, i32 noundef -2, ptr noundef @.str, ptr noundef @.str.42, ptr noundef @.str.43)
  store i32 -2, ptr %3, align 4
  br label %19

15:                                               ; preds = %10
  %16 = load ptr, ptr %5, align 8
  %17 = load ptr, ptr %6, align 8
  %18 = getelementptr inbounds %struct.KINMemRec, ptr %17, i32 0, i32 1
  store ptr %16, ptr %18, align 8
  store i32 0, ptr %3, align 4
  br label %19

19:                                               ; preds = %15, %14, %9
  %20 = load i32, ptr %3, align 4
  ret i32 %20
}